; ModuleID = '28/1204.c'
source_filename = "28/1204.c"
target datalayout = "e-m:e-p270:32:32-p271:32:32-p272:64:64-i64:64-f80:128-n8:16:32:64-S128"
target triple = "x86_64-pc-linux-gnu"

@.str = private unnamed_addr constant [3 x i8] c"%d\00", align 1
@.str.1 = private unnamed_addr constant [4 x i8] c",%d\00", align 1

; Function Attrs: noinline nounwind uwtable
define dso_local i32 @main() #0 {
  %1 = alloca i32, align 4
  %2 = alloca i32, align 4
  %3 = alloca i32, align 4
  %4 = alloca i32, align 4
  %5 = alloca i32, align 4
  %6 = alloca [301 x i32], align 16
  %7 = alloca [301 x i32], align 16
  %8 = alloca [3000 x i8], align 16
  store i32 0, i32* %1, align 4
  store i32 0, i32* %3, align 4
  store i32 0, i32* %5, align 4
  %9 = bitcast [301 x i32]* %6 to i8*
  call void @llvm.memset.p0i8.i64(i8* align 16 %9, i8 0, i64 1204, i1 false)
  %10 = bitcast [301 x i32]* %7 to i8*
  call void @llvm.memset.p0i8.i64(i8* align 16 %10, i8 0, i64 1204, i1 false)
  %11 = getelementptr inbounds [3000 x i8], [3000 x i8]* %8, i64 0, i64 0
  %12 = call i32 (i8*, ...) bitcast (i32 (...)* @gets to i32 (i8*, ...)*)(i8* %11)
  %13 = getelementptr inbounds [3000 x i8], [3000 x i8]* %8, i64 0, i64 0
  %14 = call i64 @strlen(i8* %13) #4
  %15 = trunc i64 %14 to i32
  store i32 %15, i32* %2, align 4
  br label %16

16:                                               ; preds = %47, %0
  %17 = load i32, i32* %3, align 4
  %18 = load i32, i32* %2, align 4
  %19 = icmp sle i32 %17, %18
  br i1 %19, label %20, label %48

20:                                               ; preds = %16
  %21 = load i32, i32* %3, align 4
  %22 = sext i32 %21 to i64
  %23 = getelementptr inbounds [3000 x i8], [3000 x i8]* %8, i64 0, i64 %22
  %24 = load i8, i8* %23, align 1
  %25 = sext i8 %24 to i32
  %26 = icmp ne i32 %25, 32
  br i1 %26, label %27, label %30

27:                                               ; preds = %20
  %28 = load i32, i32* %3, align 4
  %29 = add nsw i32 %28, 1
  store i32 %29, i32* %3, align 4
  br label %30

30:                                               ; preds = %27, %20
  %31 = load i32, i32* %3, align 4
  %32 = sext i32 %31 to i64
  %33 = getelementptr inbounds [3000 x i8], [3000 x i8]* %8, i64 0, i64 %32
  %34 = load i8, i8* %33, align 1
  %35 = sext i8 %34 to i32
  %36 = icmp eq i32 %35, 32
  br i1 %36, label %37, label %38

37:                                               ; preds = %30
  br label %48

38:                                               ; preds = %30
  %39 = load i32, i32* %3, align 4
  %40 = sext i32 %39 to i64
  %41 = getelementptr inbounds [3000 x i8], [3000 x i8]* %8, i64 0, i64 %40
  %42 = load i8, i8* %41, align 1
  %43 = sext i8 %42 to i32
  %44 = icmp eq i32 %43, 0
  br i1 %44, label %45, label %47

45:                                               ; preds = %38
  %46 = getelementptr inbounds [301 x i32], [301 x i32]* %6, i64 0, i64 1
  store i32 -1, i32* %46, align 4
  br label %47

47:                                               ; preds = %45, %38
  br label %16

48:                                               ; preds = %37, %16
  %49 = getelementptr inbounds [301 x i32], [301 x i32]* %6, i64 0, i64 1
  %50 = load i32, i32* %49, align 4
  %51 = load i32, i32* %3, align 4
  %52 = add nsw i32 %50, %51
  %53 = getelementptr inbounds [301 x i32], [301 x i32]* %6, i64 0, i64 1
  store i32 %52, i32* %53, align 4
  store i32 1, i32* %5, align 4
  %54 = load i32, i32* %3, align 4
  %55 = add nsw i32 %54, 1
  store i32 %55, i32* %3, align 4
  br label %56

56:                                               ; preds = %141, %48
  %57 = load i32, i32* %3, align 4
  %58 = load i32, i32* %2, align 4
  %59 = icmp sle i32 %57, %58
  br i1 %59, label %60, label %144

60:                                               ; preds = %56
  %61 = load i32, i32* %3, align 4
  %62 = sext i32 %61 to i64
  %63 = getelementptr inbounds [3000 x i8], [3000 x i8]* %8, i64 0, i64 %62
  %64 = load i8, i8* %63, align 1
  %65 = sext i8 %64 to i32
  %66 = icmp eq i32 %65, 32
  br i1 %66, label %67, label %104

67:                                               ; preds = %60
  %68 = load i32, i32* %5, align 4
  %69 = add nsw i32 %68, 1
  store i32 %69, i32* %5, align 4
  store i32 1, i32* %4, align 4
  br label %70

70:                                               ; preds = %88, %67
  %71 = load i32, i32* %4, align 4
  %72 = load i32, i32* %5, align 4
  %73 = sub nsw i32 %72, 1
  %74 = icmp sle i32 %71, %73
  br i1 %74, label %75, label %91

75:                                               ; preds = %70
  %76 = load i32, i32* %5, align 4
  %77 = sext i32 %76 to i64
  %78 = getelementptr inbounds [301 x i32], [301 x i32]* %7, i64 0, i64 %77
  %79 = load i32, i32* %78, align 4
  %80 = load i32, i32* %4, align 4
  %81 = sext i32 %80 to i64
  %82 = getelementptr inbounds [301 x i32], [301 x i32]* %6, i64 0, i64 %81
  %83 = load i32, i32* %82, align 4
  %84 = add nsw i32 %79, %83
  %85 = load i32, i32* %5, align 4
  %86 = sext i32 %85 to i64
  %87 = getelementptr inbounds [301 x i32], [301 x i32]* %7, i64 0, i64 %86
  store i32 %84, i32* %87, align 4
  br label %88

88:                                               ; preds = %75
  %89 = load i32, i32* %4, align 4
  %90 = add nsw i32 %89, 1
  store i32 %90, i32* %4, align 4
  br label %70

91:                                               ; preds = %70
  %92 = load i32, i32* %3, align 4
  %93 = load i32, i32* %5, align 4
  %94 = sext i32 %93 to i64
  %95 = getelementptr inbounds [301 x i32], [301 x i32]* %7, i64 0, i64 %94
  %96 = load i32, i32* %95, align 4
  %97 = sub nsw i32 %92, %96
  %98 = load i32, i32* %5, align 4
  %99 = sub nsw i32 %97, %98
  %100 = add nsw i32 %99, 1
  %101 = load i32, i32* %5, align 4
  %102 = sext i32 %101 to i64
  %103 = getelementptr inbounds [301 x i32], [301 x i32]* %6, i64 0, i64 %102
  store i32 %100, i32* %103, align 4
  br label %104

104:                                              ; preds = %91, %60
  %105 = load i32, i32* %3, align 4
  %106 = sext i32 %105 to i64
  %107 = getelementptr inbounds [3000 x i8], [3000 x i8]* %8, i64 0, i64 %106
  %108 = load i8, i8* %107, align 1
  %109 = sext i8 %108 to i32
  %110 = icmp eq i32 %109, 0
  br i1 %110, label %111, label %140

111:                                              ; preds = %104
  %112 = load i32, i32* %5, align 4
  %113 = add nsw i32 %112, 1
  store i32 %113, i32* %5, align 4
  %114 = load i32, i32* %5, align 4
  %115 = sub nsw i32 %114, 1
  %116 = sext i32 %115 to i64
  %117 = getelementptr inbounds [301 x i32], [301 x i32]* %7, i64 0, i64 %116
  %118 = load i32, i32* %117, align 4
  %119 = load i32, i32* %5, align 4
  %120 = sub nsw i32 %119, 1
  %121 = sext i32 %120 to i64
  %122 = getelementptr inbounds [301 x i32], [301 x i32]* %6, i64 0, i64 %121
  %123 = load i32, i32* %122, align 4
  %124 = add nsw i32 %118, %123
  %125 = load i32, i32* %5, align 4
  %126 = sext i32 %125 to i64
  %127 = getelementptr inbounds [301 x i32], [301 x i32]* %7, i64 0, i64 %126
  store i32 %124, i32* %127, align 4
  %128 = load i32, i32* %3, align 4
  %129 = load i32, i32* %5, align 4
  %130 = sext i32 %129 to i64
  %131 = getelementptr inbounds [301 x i32], [301 x i32]* %7, i64 0, i64 %130
  %132 = load i32, i32* %131, align 4
  %133 = sub nsw i32 %128, %132
  %134 = load i32, i32* %5, align 4
  %135 = sub nsw i32 %133, %134
  %136 = add nsw i32 %135, 1
  %137 = load i32, i32* %5, align 4
  %138 = sext i32 %137 to i64
  %139 = getelementptr inbounds [301 x i32], [301 x i32]* %6, i64 0, i64 %138
  store i32 %136, i32* %139, align 4
  br label %144

140:                                              ; preds = %104
  br label %141

141:                                              ; preds = %140
  %142 = load i32, i32* %3, align 4
  %143 = add nsw i32 %142, 1
  store i32 %143, i32* %3, align 4
  br label %56

144:                                              ; preds = %111, %56
  %145 = getelementptr inbounds [301 x i32], [301 x i32]* %6, i64 0, i64 1
  %146 = load i32, i32* %145, align 4
  %147 = call i32 (i8*, ...) @printf(i8* getelementptr inbounds ([3 x i8], [3 x i8]* @.str, i64 0, i64 0), i32 %146)
  store i32 2, i32* %5, align 4
  br label %148

148:                                              ; preds = %164, %144
  %149 = load i32, i32* %5, align 4
  %150 = icmp sle i32 %149, 300
  br i1 %150, label %151, label %167

151:                                              ; preds = %148
  %152 = load i32, i32* %5, align 4
  %153 = sext i32 %152 to i64
  %154 = getelementptr inbounds [301 x i32], [301 x i32]* %6, i64 0, i64 %153
  %155 = load i32, i32* %154, align 4
  %156 = icmp ne i32 %155, 0
  br i1 %156, label %157, label %163

157:                                              ; preds = %151
  %158 = load i32, i32* %5, align 4
  %159 = sext i32 %158 to i64
  %160 = getelementptr inbounds [301 x i32], [301 x i32]* %6, i64 0, i64 %159
  %161 = load i32, i32* %160, align 4
  %162 = call i32 (i8*, ...) @printf(i8* getelementptr inbounds ([4 x i8], [4 x i8]* @.str.1, i64 0, i64 0), i32 %161)
  br label %163

163:                                              ; preds = %157, %151
  br label %164

164:                                              ; preds = %163
  %165 = load i32, i32* %5, align 4
  %166 = add nsw i32 %165, 1
  store i32 %166, i32* %5, align 4
  br label %148

167:                                              ; preds = %148
  %168 = load i32, i32* %1, align 4
  ret i32 %168
}

; Function Attrs: argmemonly nounwind willreturn
declare void @llvm.memset.p0i8.i64(i8* nocapture writeonly, i8, i64, i1 immarg) #1

declare dso_local i32 @gets(...) #2

; Function Attrs: nounwind readonly
declare dso_local i64 @strlen(i8*) #3

declare dso_local i32 @printf(i8*, ...) #2


!llvm.module.flags = !{!0}
!llvm.ident = !{!1}

!0 = !{i32 1, !"wchar_size", i32 4}
!1 = !{!"clang version 10.0.0-4ubuntu1 "}
